; ModuleID = '2/827.c'
source_filename = "2/827.c"
target datalayout = "e-m:e-p270:32:32-p271:32:32-p272:64:64-i64:64-f80:128-n8:16:32:64-S128"
target triple = "x86_64-pc-linux-gnu"

@.str = private unnamed_addr constant [3 x i8] c"%d\00", align 1
@.str.1 = private unnamed_addr constant [6 x i8] c"%d %s\00", align 1
@.str.2 = private unnamed_addr constant [4 x i8] c"%c\0A\00", align 1
@.str.3 = private unnamed_addr constant [4 x i8] c"%d\0A\00", align 1

; Function Attrs: noinline nounwind uwtable
define dso_local void @main() #0 {
  %1 = alloca i32, align 4
  %2 = alloca i32, align 4
  %3 = alloca i32, align 4
  %4 = alloca i32, align 4
  %5 = alloca i32, align 4
  %6 = alloca i32, align 4
  %7 = alloca [1000 x i32], align 16
  %8 = alloca [1000 x [30 x i8]], align 16
  %9 = alloca [26 x i32], align 16
  store i32 0, i32* %2, align 4
  br label %10

10:                                               ; preds = %17, %0
  %11 = load i32, i32* %2, align 4
  %12 = icmp slt i32 %11, 26
  br i1 %12, label %13, label %20

13:                                               ; preds = %10
  %14 = load i32, i32* %2, align 4
  %15 = sext i32 %14 to i64
  %16 = getelementptr inbounds [26 x i32], [26 x i32]* %9, i64 0, i64 %15
  store i32 0, i32* %16, align 4
  br label %17

17:                                               ; preds = %13
  %18 = load i32, i32* %2, align 4
  %19 = add nsw i32 %18, 1
  store i32 %19, i32* %2, align 4
  br label %10

20:                                               ; preds = %10
  %21 = call i32 (i8*, ...) @__isoc99_scanf(i8* getelementptr inbounds ([3 x i8], [3 x i8]* @.str, i64 0, i64 0), i32* %1)
  store i32 0, i32* %2, align 4
  br label %22

22:                                               ; preds = %73, %20
  %23 = load i32, i32* %2, align 4
  %24 = load i32, i32* %1, align 4
  %25 = icmp slt i32 %23, %24
  br i1 %25, label %26, label %76

26:                                               ; preds = %22
  %27 = load i32, i32* %2, align 4
  %28 = sext i32 %27 to i64
  %29 = getelementptr inbounds [1000 x i32], [1000 x i32]* %7, i64 0, i64 %28
  %30 = load i32, i32* %2, align 4
  %31 = sext i32 %30 to i64
  %32 = getelementptr inbounds [1000 x [30 x i8]], [1000 x [30 x i8]]* %8, i64 0, i64 %31
  %33 = getelementptr inbounds [30 x i8], [30 x i8]* %32, i64 0, i64 0
  %34 = call i32 (i8*, ...) @__isoc99_scanf(i8* getelementptr inbounds ([6 x i8], [6 x i8]* @.str.1, i64 0, i64 0), i32* %29, i8* %33)
  store i32 0, i32* %3, align 4
  br label %35

35:                                               ; preds = %69, %26
  %36 = load i32, i32* %3, align 4
  %37 = sext i32 %36 to i64
  %38 = load i32, i32* %2, align 4
  %39 = sext i32 %38 to i64
  %40 = getelementptr inbounds [1000 x [30 x i8]], [1000 x [30 x i8]]* %8, i64 0, i64 %39
  %41 = getelementptr inbounds [30 x i8], [30 x i8]* %40, i64 0, i64 0
  %42 = call i64 @strlen(i8* %41) #3
  %43 = icmp ult i64 %37, %42
  br i1 %43, label %44, label %72

44:                                               ; preds = %35
  %45 = load i32, i32* %2, align 4
  %46 = sext i32 %45 to i64
  %47 = getelementptr inbounds [1000 x [30 x i8]], [1000 x [30 x i8]]* %8, i64 0, i64 %46
  %48 = load i32, i32* %3, align 4
  %49 = sext i32 %48 to i64
  %50 = getelementptr inbounds [30 x i8], [30 x i8]* %47, i64 0, i64 %49
  %51 = load i8, i8* %50, align 1
  %52 = sext i8 %51 to i32
  %53 = sub nsw i32 %52, 65
  %54 = sext i32 %53 to i64
  %55 = getelementptr inbounds [26 x i32], [26 x i32]* %9, i64 0, i64 %54
  %56 = load i32, i32* %55, align 4
  %57 = add nsw i32 %56, 1
  %58 = load i32, i32* %2, align 4
  %59 = sext i32 %58 to i64
  %60 = getelementptr inbounds [1000 x [30 x i8]], [1000 x [30 x i8]]* %8, i64 0, i64 %59
  %61 = load i32, i32* %3, align 4
  %62 = sext i32 %61 to i64
  %63 = getelementptr inbounds [30 x i8], [30 x i8]* %60, i64 0, i64 %62
  %64 = load i8, i8* %63, align 1
  %65 = sext i8 %64 to i32
  %66 = sub nsw i32 %65, 65
  %67 = sext i32 %66 to i64
  %68 = getelementptr inbounds [26 x i32], [26 x i32]* %9, i64 0, i64 %67
  store i32 %57, i32* %68, align 4
  br label %69

69:                                               ; preds = %44
  %70 = load i32, i32* %3, align 4
  %71 = add nsw i32 %70, 1
  store i32 %71, i32* %3, align 4
  br label %35

72:                                               ; preds = %35
  br label %73

73:                                               ; preds = %72
  %74 = load i32, i32* %2, align 4
  %75 = add nsw i32 %74, 1
  store i32 %75, i32* %2, align 4
  br label %22

76:                                               ; preds = %22
  %77 = getelementptr inbounds [26 x i32], [26 x i32]* %9, i64 0, i64 0
  %78 = load i32, i32* %77, align 16
  store i32 %78, i32* %4, align 4
  store i32 0, i32* %5, align 4
  store i32 0, i32* %2, align 4
  br label %79

79:                                               ; preds = %96, %76
  %80 = load i32, i32* %2, align 4
  %81 = icmp slt i32 %80, 26
  br i1 %81, label %82, label %99

82:                                               ; preds = %79
  %83 = load i32, i32* %2, align 4
  %84 = sext i32 %83 to i64
  %85 = getelementptr inbounds [26 x i32], [26 x i32]* %9, i64 0, i64 %84
  %86 = load i32, i32* %85, align 4
  %87 = load i32, i32* %4, align 4
  %88 = icmp sgt i32 %86, %87
  br i1 %88, label %89, label %95

89:                                               ; preds = %82
  %90 = load i32, i32* %2, align 4
  %91 = sext i32 %90 to i64
  %92 = getelementptr inbounds [26 x i32], [26 x i32]* %9, i64 0, i64 %91
  %93 = load i32, i32* %92, align 4
  store i32 %93, i32* %4, align 4
  %94 = load i32, i32* %2, align 4
  store i32 %94, i32* %5, align 4
  br label %95

95:                                               ; preds = %89, %82
  br label %96

96:                                               ; preds = %95
  %97 = load i32, i32* %2, align 4
  %98 = add nsw i32 %97, 1
  store i32 %98, i32* %2, align 4
  br label %79

99:                                               ; preds = %79
  %100 = load i32, i32* %5, align 4
  %101 = add nsw i32 %100, 65
  %102 = call i32 (i8*, ...) @printf(i8* getelementptr inbounds ([4 x i8], [4 x i8]* @.str.2, i64 0, i64 0), i32 %101)
  %103 = load i32, i32* %4, align 4
  %104 = call i32 (i8*, ...) @printf(i8* getelementptr inbounds ([4 x i8], [4 x i8]* @.str.3, i64 0, i64 0), i32 %103)
  store i32 0, i32* %2, align 4
  br label %105

105:                                              ; preds = %143, %99
  %106 = load i32, i32* %2, align 4
  %107 = load i32, i32* %1, align 4
  %108 = icmp slt i32 %106, %107
  br i1 %108, label %109, label %146

109:                                              ; preds = %105
  store i32 0, i32* %3, align 4
  br label %110

110:                                              ; preds = %139, %109
  %111 = load i32, i32* %3, align 4
  %112 = sext i32 %111 to i64
  %113 = load i32, i32* %2, align 4
  %114 = sext i32 %113 to i64
  %115 = getelementptr inbounds [1000 x [30 x i8]], [1000 x [30 x i8]]* %8, i64 0, i64 %114
  %116 = getelementptr inbounds [30 x i8], [30 x i8]* %115, i64 0, i64 0
  %117 = call i64 @strlen(i8* %116) #3
  %118 = icmp ult i64 %112, %117
  br i1 %118, label %119, label %142

119:                                              ; preds = %110
  %120 = load i32, i32* %2, align 4
  %121 = sext i32 %120 to i64
  %122 = getelementptr inbounds [1000 x [30 x i8]], [1000 x [30 x i8]]* %8, i64 0, i64 %121
  %123 = load i32, i32* %3, align 4
  %124 = sext i32 %123 to i64
  %125 = getelementptr inbounds [30 x i8], [30 x i8]* %122, i64 0, i64 %124
  %126 = load i8, i8* %125, align 1
  %127 = sext i8 %126 to i32
  store i32 %127, i32* %6, align 4
  %128 = load i32, i32* %6, align 4
  %129 = load i32, i32* %5, align 4
  %130 = add nsw i32 %129, 65
  %131 = icmp eq i32 %128, %130
  br i1 %131, label %132, label %138

132:                                              ; preds = %119
  %133 = load i32, i32* %2, align 4
  %134 = sext i32 %133 to i64
  %135 = getelementptr inbounds [1000 x i32], [1000 x i32]* %7, i64 0, i64 %134
  %136 = load i32, i32* %135, align 4
  %137 = call i32 (i8*, ...) @printf(i8* getelementptr inbounds ([4 x i8], [4 x i8]* @.str.3, i64 0, i64 0), i32 %136)
  br label %142

138:                                              ; preds = %119
  br label %139

139:                                              ; preds = %138
  %140 = load i32, i32* %3, align 4
  %141 = add nsw i32 %140, 1
  store i32 %141, i32* %3, align 4
  br label %110

142:                                              ; preds = %132, %110
  br label %143

143:                                              ; preds = %142
  %144 = load i32, i32* %2, align 4
  %145 = add nsw i32 %144, 1
  store i32 %145, i32* %2, align 4
  br label %105

146:                                              ; preds = %105
  ret void
}

declare dso_local i32 @__isoc99_scanf(i8*, ...) #1

; Function Attrs: nounwind readonly
declare dso_local i64 @strlen(i8*) #2

declare dso_local i32 @printf(i8*, ...) #1


!llvm.module.flags = !{!0}
!llvm.ident = !{!1}

!0 = !{i32 1, !"wchar_size", i32 4}
!1 = !{!"clang version 10.0.0-4ubuntu1 "}
